target datalayout = "e-m:e-p270:32:32-p271:32:32-p272:64:64-i64:64-i128:128-f80:128-n8:16:32:64-S128"
target triple = "x86_64-pc-linux-gnu"

; Function Attrs: mustprogress nounwind uwtable
define hidden noundef i64 @_ZN6Assimp3FBX4Util24ComputeDecodedSizeBase64EPKcm(ptr noundef %0, i64 noundef %1) #0 {
  %3 = alloca i64, align 8
  %4 = alloca ptr, align 8
  %5 = alloca i64, align 8
  %6 = alloca i64, align 8
  %7 = alloca i64, align 8
  %8 = alloca i32, align 4
  store ptr %0, ptr %4, align 8
  store i64 %1, ptr %5, align 8
  %9 = load i64, ptr %5, align 8
  %10 = icmp ult i64 %9, 2
  br i1 %10, label %11, label %12

11:                                               ; preds = %2
  store i64 0, ptr %3, align 8
  br label %42

12:                                               ; preds = %2
  call void @llvm.lifetime.start.p0(i64 8, ptr %6) #13
  %13 = load ptr, ptr %4, align 8
  %14 = load i64, ptr %5, align 8
  %15 = sub i64 %14, 1
  %16 = getelementptr inbounds nuw i8, ptr %13, i64 %15
  %17 = load i8, ptr %16, align 1
  %18 = sext i8 %17 to i32
  %19 = icmp eq i32 %18, 61
  %20 = zext i1 %19 to i64
  %21 = load ptr, ptr %4, align 8
  %22 = load i64, ptr %5, align 8
  %23 = sub i64 %22, 2
  %24 = getelementptr inbounds nuw i8, ptr %21, i64 %23
  %25 = load i8, ptr %24, align 1
  %26 = sext i8 %25 to i32
  %27 = icmp eq i32 %26, 61
  %28 = zext i1 %27 to i64
  %29 = add i64 %20, %28
  store i64 %29, ptr %6, align 8
  call void @llvm.lifetime.start.p0(i64 8, ptr %7) #13
  %30 = load i64, ptr %5, align 8
  %31 = mul i64 %30, 3
  %32 = lshr i64 %31, 2
  store i64 %32, ptr %7, align 8
  %33 = load i64, ptr %7, align 8
  %34 = load i64, ptr %6, align 8
  %35 = icmp ult i64 %33, %34
  br i1 %35, label %36, label %37

36:                                               ; preds = %12
  store i64 0, ptr %3, align 8
  store i32 1, ptr %8, align 4
  br label %41

37:                                               ; preds = %12
  %38 = load i64, ptr %7, align 8
  %39 = load i64, ptr %6, align 8
  %40 = sub i64 %38, %39
  store i64 %40, ptr %3, align 8
  store i32 1, ptr %8, align 4
  br label %41

41:                                               ; preds = %37, %36
  call void @llvm.lifetime.end.p0(i64 8, ptr %7) #13
  call void @llvm.lifetime.end.p0(i64 8, ptr %6) #13
  br label %42

42:                                               ; preds = %41, %11
  %43 = load i64, ptr %3, align 8
  ret i64 %43
}