; Function Attrs: mustprogress nofree norecurse nosync nounwind willreturn memory(argmem: read) uwtable
define hidden noundef range(i64 0, 4611686018427387904) i64 @_ZN6Assimp3FBX4Util24ComputeDecodedSizeBase64EPKcm(ptr noundef readonly captures(none) %0, i64 noundef %1) local_unnamed_addr #4 {
  %3 = icmp ult i64 %1, 2
  br i1 %3, label %17, label %4

4:                                                ; preds = %2
  %5 = getelementptr i8, ptr %0, i64 %1
  %6 = getelementptr i8, ptr %5, i64 -1
  %7 = load i8, ptr %6, align 1
  %8 = icmp eq i8 %7, 61
  %9 = zext i1 %8 to i64
  %10 = getelementptr i8, ptr %5, i64 -2
  %11 = load i8, ptr %10, align 1
  %12 = icmp eq i8 %11, 61
  %13 = zext i1 %12 to i64
  %14 = add nuw nsw i64 %13, %9
  %15 = mul i64 %1, 3
  %16 = lshr i64 %15, 2
  %.1 = tail call i64 @llvm.usub.sat.i64(i64 %16, i64 %14)
  br label %17

17:                                               ; preds = %2, %4
  %.0 = phi i64 [ %.1, %4 ], [ 0, %2 ]
  ret i64 %.0
}